; Function Attrs: mustprogress uwtable
define internal fastcc void @_ZL10write_tabsP11_FileStream(ptr noundef %0) unnamed_addr #2 personality ptr @__gxx_personality_v0 {
  %2 = alloca %"class.icu_77::UnicodeString", align 8
  %3 = load i32, ptr @_ZL8tabCount, align 4, !tbaa !6
  %.not4 = icmp slt i32 %3, 0
  br i1 %.not4, label %._crit_edge, label %.lr.ph

.lr.ph:                                           ; preds = %1, %4
  %.05 = phi i32 [ %5, %4 ], [ 0, %1 ]
  call void @_ZN6icu_7713UnicodeStringC1EPKc(ptr noundef nonnull align 8 dereferenceable(64) %2, ptr noundef nonnull @.str.93)
  invoke fastcc void @_ZL15write_utf8_fileP11_FileStreamN6icu_7713UnicodeStringE(ptr noundef %0, ptr noundef %2)
          to label %4 unwind label %7

4:                                                ; preds = %.lr.ph
  call void @_ZN6icu_7713UnicodeStringD1Ev(ptr noundef nonnull align 8 dereferenceable(64) %2) #13
  %5 = add nuw nsw i32 %.05, 1
  %6 = load i32, ptr @_ZL8tabCount, align 4, !tbaa !6
  %.not.not = icmp slt i32 %.05, %6
  br i1 %.not.not, label %.lr.ph, label %._crit_edge, !llvm.loop !23

7:                                                ; preds = %.lr.ph
  %8 = landingpad { ptr, i32 }
          cleanup
  call void @_ZN6icu_7713UnicodeStringD1Ev(ptr noundef nonnull align 8 dereferenceable(64) %2) #13
  resume { ptr, i32 } %8

._crit_edge:                                      ; preds = %4, %1
  ret void
}